; Function Attrs: nounwind uwtable
define internal range(i32 0, 2) i32 @aead_rc4_tls_get_rc4_state(ptr noundef readonly captures(none) %0, ptr noundef writeonly captures(none) %1) #1 {
  %3 = getelementptr inbounds nuw i8, ptr %0, i64 8
  %4 = load ptr, ptr %3, align 8, !tbaa !6
  %5 = tail call ptr @EVP_CIPHER_CTX_cipher(ptr noundef %4) #8
  %6 = tail call ptr @EVP_rc4() #8
  %.not = icmp eq ptr %5, %6
  br i1 %.not, label %7, label %10

7:                                                ; preds = %2
  %8 = getelementptr inbounds nuw i8, ptr %4, i64 16
  %9 = load ptr, ptr %8, align 8, !tbaa !30
  store ptr %9, ptr %1, align 8, !tbaa !31
  br label %10

10:                                               ; preds = %2, %7
  %.0 = phi i32 [ 1, %7 ], [ 0, %2 ]
  ret i32 %.0
}